target datalayout = "e-m:e-p270:32:32-p271:32:32-p272:64:64-i64:64-i128:128-f80:128-n8:16:32:64-S128"
target triple = "x86_64-pc-linux-gnu"

%struct.RVMapDesc = type { i8, i8, [256 x i8], [256 x i8] }
%struct.AVCodecContext = type { ptr, i32, i32, ptr, i32, i32, ptr, ptr, ptr, i64, i32, i32, ptr, i32, %struct.AVRational, %struct.AVRational, %struct.AVRational, i32, i32, i32, i32, i32, %struct.AVRational, i32, i32, i32, i32, i32, i32, i32, i32, i32, i32, i32, ptr, ptr, i32, float, float, float, float, float, float, float, float, float, i32, i32, i32, i32, i32, i32, i32, i32, i32, i32, i32, i32, ptr, ptr, ptr, i32, i32, i32, i32, i32, i32, i32, i32, i32, i32, %struct.AVChannelLayout, i32, i32, i32, i32, i32, i32, i32, i32, ptr, i32, i32, i32, float, float, i32, i32, i32, i32, i32, ptr, i64, i64, float, float, i32, i32, ptr, ptr, i32, i32, i32, i32, i32, ptr, ptr, ptr, ptr, i32, i32, [8 x i64], i32, i32, i32, i32, i32, i32, i32, ptr, ptr, i32, i32, i32, i32, i32, i32, i32, i32, i32, i32, ptr, ptr, i32, i32, ptr, ptr, ptr, ptr, i32, i32, i64, i32, i32, i64, ptr, i64, ptr, i32, ptr, i32 }
%struct.AVRational = type { i32, i32 }
%struct.AVChannelLayout = type { i32, i32, %union.anon.0, ptr }
%union.anon.0 = type { i64 }
%struct.IVI45DecContext = type { %struct.GetBitContext, [9 x %struct.RVMapDesc], i32, i32, i32, i32, i32, ptr, i32, i32, i32, i8, i16, %struct.IVIPicConfig, [3 x %struct.IVIPlaneDesc], i32, i32, i32, i32, i32, %struct.IVIHuffTab, %struct.IVIHuffTab, i8, i8, i8, i8, i8, i16, i8, i32, i32, i8, i8, i8, i8, i8, ptr, ptr, ptr, ptr, ptr, i32, [4 x i32], i32, ptr, i32 }
%struct.GetBitContext = type { ptr, ptr, i32, i32, i32 }
%struct.IVIPicConfig = type { i16, i16, i16, i16, i16, i16, i8, i8 }
%struct.IVIPlaneDesc = type { i16, i16, i8, ptr }
%struct.IVIHuffTab = type { i32, ptr, %struct.IVIHuffDesc, %struct.VLC }
%struct.IVIHuffDesc = type { i32, [16 x i8] }
%struct.VLC = type { i32, ptr, i32, i32 }

@ff_ivi_rvmap_tabs = external constant [9 x %struct.RVMapDesc], align 16

; Function Attrs: cold nounwind optsize uwtable
define internal i32 @decode_init(ptr noundef %0) #0 {
  %2 = alloca i32, align 4
  %3 = alloca ptr, align 8
  %4 = alloca ptr, align 8
  %5 = alloca i32, align 4
  store ptr %0, ptr %3, align 8, !tbaa !4
  call void @llvm.lifetime.start.p0(i64 8, ptr %4) #9
  %6 = load ptr, ptr %3, align 8, !tbaa !4
  %7 = getelementptr inbounds nuw %struct.AVCodecContext, ptr %6, i32 0, i32 6
  %8 = load ptr, ptr %7, align 8, !tbaa !9
  store ptr %8, ptr %4, align 8, !tbaa !29
  call void @ff_ivi_init_static_vlc()
  %9 = load ptr, ptr %4, align 8, !tbaa !29
  %10 = getelementptr inbounds nuw %struct.IVI45DecContext, ptr %9, i32 0, i32 1
  %11 = getelementptr inbounds [9 x %struct.RVMapDesc], ptr %10, i64 0, i64 0
  call void @llvm.memcpy.p0.p0.i64(ptr align 8 %11, ptr align 16 @ff_ivi_rvmap_tabs, i64 4626, i1 false)
  %12 = load ptr, ptr %4, align 8, !tbaa !29
  %13 = getelementptr inbounds nuw %struct.IVI45DecContext, ptr %12, i32 0, i32 13
  %14 = getelementptr inbounds nuw %struct.IVIPicConfig, ptr %13, i32 0, i32 0
  store i16 0, ptr %14, align 8, !tbaa !31
  %15 = load ptr, ptr %4, align 8, !tbaa !29
  %16 = getelementptr inbounds nuw %struct.IVI45DecContext, ptr %15, i32 0, i32 13
  %17 = getelementptr inbounds nuw %struct.IVIPicConfig, ptr %16, i32 0, i32 1
  store i16 0, ptr %17, align 2, !tbaa !42
  %18 = load ptr, ptr %3, align 8, !tbaa !4
  %19 = getelementptr inbounds nuw %struct.AVCodecContext, ptr %18, i32 0, i32 23
  store i32 6, ptr %19, align 8, !tbaa !43
  %20 = load ptr, ptr %4, align 8, !tbaa !29
  %21 = getelementptr inbounds nuw %struct.IVI45DecContext, ptr %20, i32 0, i32 36
  store ptr @decode_pic_hdr, ptr %21, align 8, !tbaa !44
  %22 = load ptr, ptr %4, align 8, !tbaa !29
  %23 = getelementptr inbounds nuw %struct.IVI45DecContext, ptr %22, i32 0, i32 37
  store ptr @decode_band_hdr, ptr %23, align 8, !tbaa !45
  %24 = load ptr, ptr %4, align 8, !tbaa !29
  %25 = getelementptr inbounds nuw %struct.IVI45DecContext, ptr %24, i32 0, i32 38
  store ptr @decode_mb_info, ptr %25, align 8, !tbaa !46
  %26 = load ptr, ptr %4, align 8, !tbaa !29
  %27 = getelementptr inbounds nuw %struct.IVI45DecContext, ptr %26, i32 0, i32 39
  store ptr @switch_buffers, ptr %27, align 8, !tbaa !47
  %28 = load ptr, ptr %4, align 8, !tbaa !29
  %29 = getelementptr inbounds nuw %struct.IVI45DecContext, ptr %28, i32 0, i32 40
  store ptr @is_nonnull_frame, ptr %29, align 8, !tbaa !48
  %30 = load ptr, ptr %4, align 8, !tbaa !29
  %31 = getelementptr inbounds nuw %struct.IVI45DecContext, ptr %30, i32 0, i32 43
  store i32 1, ptr %31, align 4, !tbaa !49
  %32 = load ptr, ptr %4, align 8, !tbaa !29
  %33 = getelementptr inbounds nuw %struct.IVI45DecContext, ptr %32, i32 0, i32 30
  store i32 1, ptr %33, align 8, !tbaa !50
  %34 = load ptr, ptr %4, align 8, !tbaa !29
  %35 = getelementptr inbounds nuw %struct.IVI45DecContext, ptr %34, i32 0, i32 16
  store i32 0, ptr %35, align 4, !tbaa !51
  %36 = load ptr, ptr %4, align 8, !tbaa !29
  %37 = getelementptr inbounds nuw %struct.IVI45DecContext, ptr %36, i32 0, i32 17
  store i32 1, ptr %37, align 8, !tbaa !52
  %38 = load ptr, ptr %4, align 8, !tbaa !29
  %39 = getelementptr inbounds nuw %struct.IVI45DecContext, ptr %38, i32 0, i32 19
  store i32 3, ptr %39, align 8, !tbaa !53
  %40 = call ptr @av_frame_alloc()
  %41 = load ptr, ptr %4, align 8, !tbaa !29
  %42 = getelementptr inbounds nuw %struct.IVI45DecContext, ptr %41, i32 0, i32 44
  store ptr %40, ptr %42, align 8, !tbaa !54
  %43 = load ptr, ptr %4, align 8, !tbaa !29
  %44 = getelementptr inbounds nuw %struct.IVI45DecContext, ptr %43, i32 0, i32 44
  %45 = load ptr, ptr %44, align 8, !tbaa !54
  %46 = icmp ne ptr %45, null
  br i1 %46, label %48, label %47

47:                                               ; preds = %1
  store i32 -12, ptr %2, align 4
  store i32 1, ptr %5, align 4
  br label %49

48:                                               ; preds = %1
  store i32 0, ptr %2, align 4
  store i32 1, ptr %5, align 4
  br label %49

49:                                               ; preds = %48, %47
  call void @llvm.lifetime.end.p0(i64 8, ptr %4) #9
  %50 = load i32, ptr %2, align 4
  ret i32 %50
}