; Function Attrs: cold nounwind optsize uwtable
define internal range(i32 -12, 1) i32 @decode_init(ptr noundef captures(none) initializes((136, 140)) %0) #0 {
  %2 = getelementptr inbounds nuw i8, ptr %0, i64 32
  %3 = load ptr, ptr %2, align 8, !tbaa !4
  tail call void @ff_ivi_init_static_vlc() #11
  %4 = getelementptr inbounds nuw i8, ptr %3, i64 32
  tail call void @llvm.memcpy.p0.p0.i64(ptr noundef nonnull align 8 dereferenceable(4626) %4, ptr noundef nonnull align 16 dereferenceable(4626) @ff_ivi_rvmap_tabs, i64 4626, i1 false)
  %5 = getelementptr inbounds nuw i8, ptr %3, i64 4704
  store i16 0, ptr %5, align 8, !tbaa !27
  %6 = getelementptr inbounds nuw i8, ptr %3, i64 4706
  store i16 0, ptr %6, align 2, !tbaa !38
  %7 = getelementptr inbounds nuw i8, ptr %0, i64 136
  store i32 6, ptr %7, align 8, !tbaa !39
  %8 = getelementptr inbounds nuw i8, ptr %3, i64 4952
  store ptr @decode_pic_hdr, ptr %8, align 8, !tbaa !40
  %9 = getelementptr inbounds nuw i8, ptr %3, i64 4960
  store ptr @decode_band_hdr, ptr %9, align 8, !tbaa !41
  %10 = getelementptr inbounds nuw i8, ptr %3, i64 4968
  store ptr @decode_mb_info, ptr %10, align 8, !tbaa !42
  %11 = getelementptr inbounds nuw i8, ptr %3, i64 4976
  store ptr @switch_buffers, ptr %11, align 8, !tbaa !43
  %12 = getelementptr inbounds nuw i8, ptr %3, i64 4984
  store ptr @is_nonnull_frame, ptr %12, align 8, !tbaa !44
  %13 = getelementptr inbounds nuw i8, ptr %3, i64 5012
  store i32 1, ptr %13, align 4, !tbaa !45
  %14 = getelementptr inbounds nuw i8, ptr %3, i64 4936
  store i32 1, ptr %14, align 8, !tbaa !46
  %15 = getelementptr inbounds nuw i8, ptr %3, i64 4772
  store i32 0, ptr %15, align 4, !tbaa !47
  %16 = getelementptr inbounds nuw i8, ptr %3, i64 4776
  store i32 1, ptr %16, align 8, !tbaa !48
  %17 = getelementptr inbounds nuw i8, ptr %3, i64 4784
  store i32 3, ptr %17, align 8, !tbaa !49
  %18 = tail call ptr @av_frame_alloc() #11
  %19 = getelementptr inbounds nuw i8, ptr %3, i64 5016
  store ptr %18, ptr %19, align 8, !tbaa !50
  %.not = icmp eq ptr %18, null
  %. = select i1 %.not, i32 -12, i32 0
  ret i32 %.
}